; Function Attrs: mustprogress uwtable
define void @_ZNK2cv11FileStorage4rootEi(ptr dead_on_unwind noalias writable sret(%"class.cv::FileNode") align 8 %0, ptr noundef nonnull readonly align 8 captures(none) dereferenceable(64) %1, i32 noundef %2) local_unnamed_addr #13 align 2 {
  %4 = getelementptr inbounds nuw i8, ptr %1, i64 48
  %5 = load ptr, ptr %4, align 8, !tbaa !352
  %6 = icmp eq ptr %5, null
  br i1 %6, label %20, label %7

7:                                                ; preds = %3
  %8 = getelementptr inbounds nuw i8, ptr %5, i64 464
  %9 = load ptr, ptr %8, align 8, !tbaa !309
  %10 = getelementptr inbounds nuw i8, ptr %5, i64 472
  %11 = load ptr, ptr %10, align 8, !tbaa !309
  %12 = icmp eq ptr %9, %11
  %13 = icmp slt i32 %2, 0
  %or.cond = or i1 %13, %12
  br i1 %or.cond, label %20, label %14

14:                                               ; preds = %7
  %15 = ptrtoint ptr %11 to i64
  %16 = ptrtoint ptr %9 to i64
  %17 = sub i64 %15, %16
  %18 = sdiv exact i64 %17, 24
  %19 = trunc i64 %18 to i32
  %.not = icmp slt i32 %2, %19
  br i1 %.not, label %21, label %20

20:                                               ; preds = %14, %7, %3
  tail call void @_ZN2cv8FileNodeC1Ev(ptr noundef nonnull align 8 dereferenceable(24) %0)
  br label %24

21:                                               ; preds = %14
  %22 = zext nneg i32 %2 to i64
  %23 = getelementptr inbounds nuw %"class.cv::FileNode", ptr %9, i64 %22
  tail call void @_ZN2cv8FileNodeC1ERKS0_(ptr noundef nonnull align 8 dereferenceable(24) %0, ptr noundef nonnull align 8 dereferenceable(24) %23)
  br label %24

24:                                               ; preds = %21, %20
  ret void
}